target datalayout = "e-m:e-p270:32:32-p271:32:32-p272:64:64-i64:64-i128:128-f80:128-n8:16:32:64-S128"
target triple = "x86_64-pc-linux-gnu"

%struct.slurm_conf_t = type { i64, ptr, i16, ptr, ptr, ptr, ptr, ptr, i16, ptr, ptr, ptr, ptr, ptr, ptr, ptr, i16, ptr, ptr, ptr, ptr, i16, ptr, ptr, ptr, i64, ptr, ptr, ptr, ptr, i16, ptr, ptr, i16, i32, ptr, i32, ptr, i32, i32, ptr, ptr, i64, i64, ptr, i16, i16, ptr, i32, i32, ptr, i32, ptr, i32, i16, i16, i16, ptr, i16, i16, ptr, ptr, i32, i16, i16, ptr, i32, i16, ptr, ptr, ptr, ptr, i16, ptr, ptr, ptr, ptr, i32, ptr, ptr, ptr, ptr, i16, i16, ptr, i32, i32, i32, i16, i16, ptr, ptr, i16, ptr, ptr, i32, i32, i32, i32, i32, i64, i32, i32, i16, ptr, ptr, i32, ptr, ptr, ptr, i16, i32, ptr, ptr, i16, ptr, ptr, i32, i16, ptr, ptr, ptr, ptr, i32, i32, i16, i16, i32, ptr, i16, ptr, i32, i32, i32, i32, i32, i32, ptr, i16, ptr, ptr, i32, i16, ptr, i32, i16, i16, ptr, ptr, ptr, i16, ptr, ptr, ptr, ptr, i16, i16, ptr, i16, ptr, i16, ptr, i16, ptr, i16, ptr, ptr, ptr, ptr, i16, ptr, ptr, ptr, i32, ptr, i32, ptr, ptr, i16, ptr, ptr, i32, i16, ptr, ptr, i16, i16, ptr, i16, ptr, ptr, ptr, i32, ptr, i16, i16, ptr, ptr, ptr, ptr, ptr, ptr, ptr, ptr, i16, i32, i16, ptr, ptr, ptr, ptr, i32, ptr, ptr, ptr, i16, ptr, ptr, ptr, i16, ptr, i16, ptr, i16, i16, ptr }
%struct.data_s = type { i32, i32, %union.anon }
%union.anon = type { ptr }

@slurm_conf = external global %struct.slurm_conf_t, align 8
@.str.6 = private unnamed_addr constant [5 x i8] c"true\00", align 1
@.str.7 = private unnamed_addr constant [6 x i8] c"false\00", align 1
@.str.16 = private unnamed_addr constant [1 x i8] zeroinitializer, align 1
@.str.17 = private unnamed_addr constant [4 x i8] c"%ld\00", align 1
@.str.83 = private unnamed_addr constant [4 x i8] c"%lf\00", align 1

; Function Attrs: nounwind uwtable
define internal void @_check_data_list_magic(ptr noundef %0) #0 {
  %2 = alloca ptr, align 8
  store ptr %0, ptr %2, align 8
  ret void
}

; Function Attrs: nounwind uwtable
define internal i32 @_convert_data_force_bool(ptr noundef %0) #0 {
  %2 = alloca i32, align 4
  %3 = alloca ptr, align 8
  store ptr %0, ptr %3, align 8
  %4 = load ptr, ptr %3, align 8
  call void @_check_magic(ptr noundef %4)
  %5 = load ptr, ptr %3, align 8
  %6 = call i32 @data_convert_type(ptr noundef %5, i32 noundef 0)
  %7 = load ptr, ptr %3, align 8
  %8 = getelementptr inbounds nuw %struct.data_s, ptr %7, i32 0, i32 1
  %9 = load i32, ptr %8, align 4
  switch i32 %9, label %31 [
    i32 65286, label %10
    i32 65285, label %10
    i32 65288, label %13
    i32 65281, label %14
    i32 65287, label %17
    i32 65284, label %24
  ]

10:                                               ; preds = %1, %1
  %11 = load ptr, ptr %3, align 8
  %12 = call ptr @data_set_bool(ptr noundef %11, i1 noundef zeroext true)
  store i32 0, ptr %2, align 4
  br label %32

13:                                               ; preds = %1
  store i32 0, ptr %2, align 4
  br label %32

14:                                               ; preds = %1
  %15 = load ptr, ptr %3, align 8
  %16 = call ptr @data_set_bool(ptr noundef %15, i1 noundef zeroext false)
  store i32 0, ptr %2, align 4
  br label %32

17:                                               ; preds = %1
  %18 = load ptr, ptr %3, align 8
  %19 = load ptr, ptr %3, align 8
  %20 = getelementptr inbounds nuw %struct.data_s, ptr %19, i32 0, i32 2
  %21 = load double, ptr %20, align 8
  %22 = fcmp une double %21, 0.000000e+00
  %23 = call ptr @data_set_bool(ptr noundef %18, i1 noundef zeroext %22)
  store i32 0, ptr %2, align 4
  br label %32

24:                                               ; preds = %1
  %25 = load ptr, ptr %3, align 8
  %26 = load ptr, ptr %3, align 8
  %27 = getelementptr inbounds nuw %struct.data_s, ptr %26, i32 0, i32 2
  %28 = load i64, ptr %27, align 8
  %29 = icmp ne i64 %28, 0
  %30 = call ptr @data_set_bool(ptr noundef %25, i1 noundef zeroext %29)
  store i32 0, ptr %2, align 4
  br label %32

31:                                               ; preds = %1
  store i32 9202, ptr %2, align 4
  br label %32

32:                                               ; preds = %31, %24, %17, %14, %13, %10
  %33 = load i32, ptr %2, align 4
  ret i32 %33
}

; Function Attrs: nounwind uwtable
define internal i32 @_convert_data_string(ptr noundef %0) #0 {
  %2 = alloca i32, align 4
  %3 = alloca ptr, align 8
  %4 = alloca ptr, align 8
  %5 = alloca ptr, align 8
  store ptr %0, ptr %3, align 8
  %6 = load ptr, ptr %3, align 8
  call void @_check_magic(ptr noundef %6)
  %7 = load ptr, ptr %3, align 8
  %8 = getelementptr inbounds nuw %struct.data_s, ptr %7, i32 0, i32 1
  %9 = load i32, ptr %8, align 4
  switch i32 %9, label %36 [
    i32 65286, label %10
    i32 65285, label %10
    i32 65288, label %11
    i32 65281, label %19
    i32 65287, label %22
    i32 65284, label %29
  ]

10:                                               ; preds = %1, %1
  store i32 0, ptr %2, align 4
  br label %37

11:                                               ; preds = %1
  %12 = load ptr, ptr %3, align 8
  %13 = load ptr, ptr %3, align 8
  %14 = getelementptr inbounds nuw %struct.data_s, ptr %13, i32 0, i32 2
  %15 = load i8, ptr %14, align 8, !range !11, !noundef !12
  %16 = trunc i8 %15 to i1
  %17 = select i1 %16, ptr @.str.6, ptr @.str.7
  %18 = call ptr @data_set_string(ptr noundef %12, ptr noundef %17)
  store i32 0, ptr %2, align 4
  br label %37

19:                                               ; preds = %1
  %20 = load ptr, ptr %3, align 8
  %21 = call ptr @data_set_string(ptr noundef %20, ptr noundef @.str.16)
  store i32 0, ptr %2, align 4
  br label %37

22:                                               ; preds = %1
  call void @llvm.lifetime.start.p0(i64 8, ptr %4) #10
  %23 = load ptr, ptr %3, align 8
  %24 = getelementptr inbounds nuw %struct.data_s, ptr %23, i32 0, i32 2
  %25 = load double, ptr %24, align 8
  %26 = call ptr (ptr, ...) @xstrdup_printf(ptr noundef @.str.83, double noundef %25)
  store ptr %26, ptr %4, align 8
  %27 = load ptr, ptr %3, align 8
  %28 = call ptr @_data_set_string_own(ptr noundef %27, ptr noundef %4)
  store i32 0, ptr %2, align 4
  call void @llvm.lifetime.end.p0(i64 8, ptr %4) #10
  br label %37

29:                                               ; preds = %1
  call void @llvm.lifetime.start.p0(i64 8, ptr %5) #10
  %30 = load ptr, ptr %3, align 8
  %31 = getelementptr inbounds nuw %struct.data_s, ptr %30, i32 0, i32 2
  %32 = load i64, ptr %31, align 8
  %33 = call ptr (ptr, ...) @xstrdup_printf(ptr noundef @.str.17, i64 noundef %32)
  store ptr %33, ptr %5, align 8
  %34 = load ptr, ptr %3, align 8
  %35 = call ptr @_data_set_string_own(ptr noundef %34, ptr noundef %5)
  store i32 0, ptr %2, align 4
  call void @llvm.lifetime.end.p0(i64 8, ptr %5) #10
  br label %37

36:                                               ; preds = %1
  store i32 9202, ptr %2, align 4
  br label %37

37:                                               ; preds = %36, %29, %22, %19, %11, %10
  %38 = load i32, ptr %2, align 4
  ret i32 %38
}

; Function Attrs: nounwind uwtable
define internal void @_check_magic(ptr noundef %0) #0 {
  %2 = alloca ptr, align 8
  store ptr %0, ptr %2, align 8
  %3 = load ptr, ptr %2, align 8
  %4 = icmp ne ptr %3, null
  br i1 %4, label %6, label %5

5:                                                ; preds = %1
  br label %29

6:                                                ; preds = %1
  %7 = load i64, ptr getelementptr inbounds nuw (%struct.slurm_conf_t, ptr @slurm_conf, i32 0, i32 42), align 8
  %8 = and i64 %7, 256
  %9 = icmp ne i64 %8, 0
  br i1 %9, label %10, label %29

10:                                               ; preds = %6
  %11 = load ptr, ptr %2, align 8
  %12 = getelementptr inbounds nuw %struct.data_s, ptr %11, i32 0, i32 1
  %13 = load i32, ptr %12, align 4
  %14 = icmp eq i32 %13, 65282
  br i1 %14, label %15, label %19

15:                                               ; preds = %10
  %16 = load ptr, ptr %2, align 8
  %17 = getelementptr inbounds nuw %struct.data_s, ptr %16, i32 0, i32 2
  %18 = load ptr, ptr %17, align 8
  call void @_check_data_list_magic(ptr noundef %18)
  br label %19

19:                                               ; preds = %15, %10
  %20 = load ptr, ptr %2, align 8
  %21 = getelementptr inbounds nuw %struct.data_s, ptr %20, i32 0, i32 1
  %22 = load i32, ptr %21, align 4
  %23 = icmp eq i32 %22, 65283
  br i1 %23, label %24, label %28

24:                                               ; preds = %19
  %25 = load ptr, ptr %2, align 8
  %26 = getelementptr inbounds nuw %struct.data_s, ptr %25, i32 0, i32 2
  %27 = load ptr, ptr %26, align 8
  call void @_check_data_list_magic(ptr noundef %27)
  br label %28

28:                                               ; preds = %24, %19
  br label %29

29:                                               ; preds = %5, %28, %6
  ret void
}

; Function Attrs: nounwind uwtable
define dso_local i32 @data_convert_type(ptr noundef %0, i32 noundef %1) #0 {
  %3 = alloca i32, align 4
  %4 = alloca ptr, align 8
  %5 = alloca i32, align 4
  store ptr %0, ptr %4, align 8
  store i32 %1, ptr %5, align 4
  %6 = load ptr, ptr %4, align 8
  call void @_check_magic(ptr noundef %6)
  %7 = load ptr, ptr %4, align 8
  %8 = icmp ne ptr %7, null
  br i1 %8, label %10, label %9

9:                                                ; preds = %2
  store i32 0, ptr %3, align 4
  br label %65

10:                                               ; preds = %2
  %11 = load i32, ptr %5, align 4
  switch i32 %11, label %64 [
    i32 5, label %12
    i32 7, label %17
    i32 4, label %22
    i32 6, label %27
    i32 1, label %32
    i32 0, label %37
    i32 3, label %63
    i32 2, label %63
    i32 8, label %64
  ]

12:                                               ; preds = %10
  %13 = load ptr, ptr %4, align 8
  %14 = call i32 @_convert_data_string(ptr noundef %13)
  %15 = icmp ne i32 %14, 0
  %16 = select i1 %15, i32 0, i32 5
  store i32 %16, ptr %3, align 4
  br label %65

17:                                               ; preds = %10
  %18 = load ptr, ptr %4, align 8
  %19 = call i32 @_convert_data_force_bool(ptr noundef %18)
  %20 = icmp ne i32 %19, 0
  %21 = select i1 %20, i32 0, i32 7
  store i32 %21, ptr %3, align 4
  br label %65

22:                                               ; preds = %10
  %23 = load ptr, ptr %4, align 8
  %24 = call i32 @_convert_data_int(ptr noundef %23, i1 noundef zeroext true)
  %25 = icmp ne i32 %24, 0
  %26 = select i1 %25, i32 0, i32 4
  store i32 %26, ptr %3, align 4
  br label %65

27:                                               ; preds = %10
  %28 = load ptr, ptr %4, align 8
  %29 = call i32 @_convert_data_float(ptr noundef %28)
  %30 = icmp ne i32 %29, 0
  %31 = select i1 %30, i32 0, i32 6
  store i32 %31, ptr %3, align 4
  br label %65

32:                                               ; preds = %10
  %33 = load ptr, ptr %4, align 8
  %34 = call i32 @_convert_data_null(ptr noundef %33)
  %35 = icmp ne i32 %34, 0
  %36 = select i1 %35, i32 0, i32 1
  store i32 %36, ptr %3, align 4
  br label %65

37:                                               ; preds = %10
  %38 = load ptr, ptr %4, align 8
  %39 = call i32 @_convert_data_null(ptr noundef %38)
  %40 = icmp ne i32 %39, 0
  br i1 %40, label %42, label %41

41:                                               ; preds = %37
  store i32 1, ptr %3, align 4
  br label %65

42:                                               ; preds = %37
  %43 = load ptr, ptr %4, align 8
  %44 = call i32 @_convert_data_int(ptr noundef %43, i1 noundef zeroext false)
  %45 = icmp ne i32 %44, 0
  br i1 %45, label %47, label %46

46:                                               ; preds = %42
  store i32 4, ptr %3, align 4
  br label %65

47:                                               ; preds = %42
  %48 = load ptr, ptr %4, align 8
  %49 = call i32 @_convert_data_float(ptr noundef %48)
  %50 = icmp ne i32 %49, 0
  br i1 %50, label %52, label %51

51:                                               ; preds = %47
  store i32 6, ptr %3, align 4
  br label %65

52:                                               ; preds = %47
  %53 = load ptr, ptr %4, align 8
  %54 = call i32 @_convert_data_int(ptr noundef %53, i1 noundef zeroext true)
  %55 = icmp ne i32 %54, 0
  br i1 %55, label %57, label %56

56:                                               ; preds = %52
  store i32 4, ptr %3, align 4
  br label %65

57:                                               ; preds = %52
  %58 = load ptr, ptr %4, align 8
  %59 = call i32 @_convert_data_bool(ptr noundef %58)
  %60 = icmp ne i32 %59, 0
  br i1 %60, label %62, label %61

61:                                               ; preds = %57
  store i32 7, ptr %3, align 4
  br label %65

62:                                               ; preds = %57
  store i32 0, ptr %3, align 4
  br label %65

63:                                               ; preds = %10, %10
  store i32 0, ptr %3, align 4
  br label %65

64:                                               ; preds = %10, %10
  store i32 0, ptr %3, align 4
  br label %65

65:                                               ; preds = %64, %63, %62, %61, %56, %51, %46, %41, %32, %27, %22, %17, %12, %9
  %66 = load i32, ptr %3, align 4
  ret i32 %66
}