; Function Attrs: nounwind uwtable
define dso_local range(i32 0, 8) i32 @data_convert_type(ptr noundef %0, i32 noundef %1) local_unnamed_addr #0 {
  %3 = alloca ptr, align 8
  %4 = alloca ptr, align 8
  %.not = icmp eq ptr %0, null
  br i1 %.not, label %_convert_data_string.exit, label %5

5:                                                ; preds = %2
  switch i32 %1, label %_convert_data_string.exit [
    i32 5, label %6
    i32 7, label %28
    i32 4, label %61
    i32 6, label %64
    i32 1, label %67
    i32 0, label %70
  ]

6:                                                ; preds = %5
  %7 = getelementptr inbounds nuw i8, ptr %0, i64 4
  %8 = load i32, ptr %7, align 4
  switch i32 %8, label %_convert_data_string.exit [
    i32 65286, label %27
    i32 65285, label %27
    i32 65288, label %9
    i32 65281, label %15
    i32 65287, label %17
    i32 65284, label %22
  ]

9:                                                ; preds = %6
  %10 = getelementptr inbounds nuw i8, ptr %0, i64 8
  %11 = load i8, ptr %10, align 8, !range !19, !noundef !20
  %12 = trunc nuw i8 %11 to i1
  %13 = select i1 %12, ptr @.str.6, ptr @.str.7
  %14 = tail call ptr @data_set_string(ptr noundef nonnull %0, ptr noundef nonnull %13)
  br label %27

15:                                               ; preds = %6
  %16 = tail call ptr @data_set_string(ptr noundef nonnull %0, ptr noundef nonnull @.str.16)
  br label %27

17:                                               ; preds = %6
  call void @llvm.lifetime.start.p0(i64 8, ptr nonnull %3) #16
  %18 = getelementptr inbounds nuw i8, ptr %0, i64 8
  %19 = load double, ptr %18, align 8
  %20 = tail call ptr (ptr, ...) @xstrdup_printf(ptr noundef nonnull @.str.83, double noundef %19) #16
  store ptr %20, ptr %3, align 8
  %21 = call ptr @_data_set_string_own(ptr noundef nonnull %0, ptr noundef nonnull %3)
  call void @llvm.lifetime.end.p0(i64 8, ptr nonnull %3) #16
  br label %27

22:                                               ; preds = %6
  call void @llvm.lifetime.start.p0(i64 8, ptr nonnull %4) #16
  %23 = getelementptr inbounds nuw i8, ptr %0, i64 8
  %24 = load i64, ptr %23, align 8
  %25 = tail call ptr (ptr, ...) @xstrdup_printf(ptr noundef nonnull @.str.17, i64 noundef %24) #16
  store ptr %25, ptr %4, align 8
  %26 = call ptr @_data_set_string_own(ptr noundef nonnull %0, ptr noundef nonnull %4)
  call void @llvm.lifetime.end.p0(i64 8, ptr nonnull %4) #16
  br label %27

27:                                               ; preds = %22, %17, %15, %9, %6, %6
  br label %_convert_data_string.exit

28:                                               ; preds = %5
  %29 = tail call fastcc i32 @_convert_data_null(ptr noundef nonnull %0)
  %.not14.i = icmp eq i32 %29, 0
  br i1 %.not14.i, label %data_convert_type.exit, label %30

30:                                               ; preds = %28
  %31 = tail call fastcc i32 @_convert_data_int(ptr noundef nonnull %0, i1 noundef zeroext false)
  %.not15.i = icmp eq i32 %31, 0
  br i1 %.not15.i, label %data_convert_type.exit, label %32

32:                                               ; preds = %30
  %33 = tail call fastcc i32 @_convert_data_float(ptr noundef nonnull %0)
  %.not16.i = icmp eq i32 %33, 0
  br i1 %.not16.i, label %data_convert_type.exit, label %34

34:                                               ; preds = %32
  %35 = tail call fastcc i32 @_convert_data_int(ptr noundef nonnull %0, i1 noundef zeroext true)
  %.not17.i = icmp eq i32 %35, 0
  br i1 %.not17.i, label %data_convert_type.exit, label %36

36:                                               ; preds = %34
  %37 = tail call fastcc i32 @_convert_data_bool(ptr noundef nonnull %0)
  br label %data_convert_type.exit

data_convert_type.exit:                           ; preds = %28, %30, %32, %34, %36
  %38 = getelementptr inbounds nuw i8, ptr %0, i64 4
  %39 = load i32, ptr %38, align 4
  switch i32 %39, label %_convert_data_string.exit [
    i32 65286, label %40
    i32 65285, label %40
    i32 65288, label %60
    i32 65281, label %48
    i32 65287, label %50
    i32 65284, label %55
  ]

40:                                               ; preds = %data_convert_type.exit, %data_convert_type.exit
  tail call fastcc void @_release(ptr noundef nonnull %0)
  store i32 65288, ptr %38, align 4
  %41 = getelementptr inbounds nuw i8, ptr %0, i64 8
  store i8 1, ptr %41, align 8
  %42 = load i64, ptr getelementptr inbounds nuw (i8, ptr @slurm_conf, i64 320), align 8
  %43 = and i64 %42, 256
  %.not10.i = icmp eq i64 %43, 0
  br i1 %.not10.i, label %60, label %44

44:                                               ; preds = %40
  %45 = tail call i32 @get_log_level() #16
  %46 = icmp sgt i32 %45, 3
  br i1 %46, label %47, label %60

47:                                               ; preds = %44
  tail call void (i32, ptr, ...) @log_var(i32 noundef 4, ptr noundef nonnull @.str.5, ptr noundef nonnull @__func__.data_set_bool, ptr noundef nonnull %0, ptr noundef nonnull @.str.6) #16
  br label %60

48:                                               ; preds = %data_convert_type.exit
  %49 = tail call ptr @data_set_bool(ptr noundef nonnull %0, i1 noundef zeroext false)
  br label %60

50:                                               ; preds = %data_convert_type.exit
  %51 = getelementptr inbounds nuw i8, ptr %0, i64 8
  %52 = load double, ptr %51, align 8
  %53 = fcmp une double %52, 0.000000e+00
  %54 = tail call ptr @data_set_bool(ptr noundef nonnull %0, i1 noundef zeroext %53)
  br label %60

55:                                               ; preds = %data_convert_type.exit
  %56 = getelementptr inbounds nuw i8, ptr %0, i64 8
  %57 = load i64, ptr %56, align 8
  %58 = icmp ne i64 %57, 0
  %59 = tail call ptr @data_set_bool(ptr noundef nonnull %0, i1 noundef zeroext %58)
  br label %60

60:                                               ; preds = %55, %50, %48, %data_convert_type.exit, %40, %44, %47
  br label %_convert_data_string.exit

61:                                               ; preds = %5
  %62 = tail call fastcc i32 @_convert_data_int(ptr noundef %0, i1 noundef zeroext true)
  %.not21 = icmp eq i32 %62, 0
  %63 = select i1 %.not21, i32 4, i32 0
  br label %_convert_data_string.exit

64:                                               ; preds = %5
  %65 = tail call fastcc i32 @_convert_data_float(ptr noundef %0)
  %.not20 = icmp eq i32 %65, 0
  %66 = select i1 %.not20, i32 6, i32 0
  br label %_convert_data_string.exit

67:                                               ; preds = %5
  %68 = tail call fastcc i32 @_convert_data_null(ptr noundef %0)
  %.not19 = icmp eq i32 %68, 0
  %69 = zext i1 %.not19 to i32
  br label %_convert_data_string.exit

70:                                               ; preds = %5
  %71 = tail call fastcc i32 @_convert_data_null(ptr noundef %0)
  %.not14 = icmp eq i32 %71, 0
  br i1 %.not14, label %_convert_data_string.exit, label %72

72:                                               ; preds = %70
  %73 = tail call fastcc i32 @_convert_data_int(ptr noundef %0, i1 noundef zeroext false)
  %.not15 = icmp eq i32 %73, 0
  br i1 %.not15, label %_convert_data_string.exit, label %74

74:                                               ; preds = %72
  %75 = tail call fastcc i32 @_convert_data_float(ptr noundef %0)
  %.not16 = icmp eq i32 %75, 0
  br i1 %.not16, label %_convert_data_string.exit, label %76

76:                                               ; preds = %74
  %77 = tail call fastcc i32 @_convert_data_int(ptr noundef %0, i1 noundef zeroext true)
  %.not17 = icmp eq i32 %77, 0
  br i1 %.not17, label %_convert_data_string.exit, label %78

78:                                               ; preds = %76
  %79 = tail call fastcc i32 @_convert_data_bool(ptr noundef %0)
  %.not18 = icmp eq i32 %79, 0
  %. = select i1 %.not18, i32 7, i32 0
  br label %_convert_data_string.exit

_convert_data_string.exit:                        ; preds = %60, %data_convert_type.exit, %27, %6, %5, %78, %76, %74, %72, %70, %2, %67, %64, %61
  %.0 = phi i32 [ %69, %67 ], [ %66, %64 ], [ %63, %61 ], [ 0, %2 ], [ 1, %70 ], [ 4, %72 ], [ 6, %74 ], [ 4, %76 ], [ %., %78 ], [ 0, %5 ], [ 5, %27 ], [ 0, %6 ], [ 7, %60 ], [ 0, %data_convert_type.exit ]
  ret i32 %.0
}